target datalayout = "e-m:e-p270:32:32-p271:32:32-p272:64:64-i64:64-i128:128-f80:128-n8:16:32:64-S128"
target triple = "x86_64-pc-linux-gnu"

%"class.marisa::Trie" = type { %"class.marisa::scoped_ptr" }
%"class.marisa::scoped_ptr" = type { ptr }
%"class.marisa::Exception" = type { %"class.std::exception", ptr, i32, i32, ptr }
%"class.std::exception" = type { ptr }
%"class.marisa::Agent" = type { %"class.marisa::Query", %"class.marisa::Key", %"class.marisa::scoped_ptr.12" }
%"class.marisa::Query" = type { ptr, i64, i64 }
%"class.marisa::Key" = type { ptr, i32, %"union.marisa::Key::Union" }
%"union.marisa::Key::Union" = type { i32 }
%"class.marisa::scoped_ptr.12" = type { ptr }

@.str = private unnamed_addr constant [128 x i8] c"generated/home/dtcxzyw/WorkSpace/Projects/compilers/llvm-opt-benchmark/bench/opencc/OpenCC/deps/marisa-0.2.6/lib/marisa/trie.cc\00", align 1
@_ZTIN6marisa9ExceptionE = linkonce_odr constant { ptr, ptr, ptr } { ptr getelementptr inbounds (ptr, ptr @_ZTVN10__cxxabiv120__si_class_type_infoE, i64 2), ptr @_ZTSN6marisa9ExceptionE, ptr @_ZTISt9exception }, comdat, align 8
@.str.17 = private unnamed_addr constant [173 x i8] c"generated/home/dtcxzyw/WorkSpace/Projects/compilers/llvm-opt-benchmark/bench/opencc/OpenCC/deps/marisa-0.2.6/lib/marisa/trie.cc:111: MARISA_STATE_ERROR: trie_.get() == NULL\00", align 1
@_ZTVN6marisa9ExceptionE = linkonce_odr unnamed_addr constant { [5 x ptr] } { [5 x ptr] [ptr null, ptr @_ZTIN6marisa9ExceptionE, ptr @_ZNSt9exceptionD2Ev, ptr @_ZN6marisa9ExceptionD0Ev, ptr @_ZNK6marisa9Exception4whatEv] }, comdat, align 8
@_ZTVSt9exception = available_externally unnamed_addr constant { [5 x ptr] } { [5 x ptr] [ptr null, ptr @_ZTISt9exception, ptr @_ZNSt9exceptionD1Ev, ptr @_ZNSt9exceptionD0Ev, ptr @_ZNKSt9exception4whatEv] }, align 8

; Function Attrs: mustprogress nounwind uwtable
define linkonce_odr noundef ptr @_ZNK6marisa10scoped_ptrINS_8grimoire4trie5StateEE3getEv(ptr noundef nonnull align 8 dereferenceable(8) %0) #5 comdat align 2 {
  %2 = alloca ptr, align 8
  store ptr %0, ptr %2, align 8, !tbaa !45
  %3 = load ptr, ptr %2, align 8
  %4 = getelementptr inbounds nuw %"class.marisa::scoped_ptr.12", ptr %3, i32 0, i32 0
  %5 = load ptr, ptr %4, align 8, !tbaa !47
  ret ptr %5
}

; Function Attrs: mustprogress nounwind uwtable
define linkonce_odr void @_ZNSt9exceptionC2Ev(ptr noundef nonnull align 8 dereferenceable(8) %0) unnamed_addr #5 comdat align 2 {
  %2 = alloca ptr, align 8
  store ptr %0, ptr %2, align 8, !tbaa !43
  %3 = load ptr, ptr %2, align 8
  store ptr getelementptr inbounds inrange(-16, 24) ({ [5 x ptr] }, ptr @_ZTVSt9exception, i32 0, i32 0, i32 2), ptr %3, align 8, !tbaa !24
  ret void
}

; Function Attrs: mustprogress nounwind uwtable
define linkonce_odr noundef ptr @_ZNK6marisa10scoped_ptrINS_8grimoire4trie9LoudsTrieEEptEv(ptr noundef nonnull align 8 dereferenceable(8) %0) #5 comdat align 2 {
  %2 = alloca ptr, align 8
  store ptr %0, ptr %2, align 8, !tbaa !8
  %3 = load ptr, ptr %2, align 8
  %4 = getelementptr inbounds nuw %"class.marisa::scoped_ptr", ptr %3, i32 0, i32 0
  %5 = load ptr, ptr %4, align 8, !tbaa !10
  ret ptr %5
}

; Function Attrs: mustprogress uwtable
define linkonce_odr noundef zeroext i1 @_ZNK6marisa5Agent9has_stateEv(ptr noundef nonnull align 8 dereferenceable(48) %0) #4 comdat align 2 {
  %2 = alloca ptr, align 8
  store ptr %0, ptr %2, align 8, !tbaa !35
  %3 = load ptr, ptr %2, align 8
  %4 = getelementptr inbounds nuw %"class.marisa::Agent", ptr %3, i32 0, i32 2
  %5 = call noundef ptr @_ZNK6marisa10scoped_ptrINS_8grimoire4trie5StateEE3getEv(ptr noundef nonnull align 8 dereferenceable(8) %4)
  %6 = icmp ne ptr %5, null
  ret i1 %6
}

; Function Attrs: mustprogress nounwind uwtable
define linkonce_odr void @_ZN6marisa9ExceptionC2EPKci18marisa_error_code_S2_(ptr noundef nonnull align 8 dereferenceable(32) %0, ptr noundef %1, i32 noundef %2, i32 noundef %3, ptr noundef %4) unnamed_addr #5 comdat align 2 {
  %6 = alloca ptr, align 8
  %7 = alloca ptr, align 8
  %8 = alloca i32, align 4
  %9 = alloca i32, align 4
  %10 = alloca ptr, align 8
  store ptr %0, ptr %6, align 8, !tbaa !18
  store ptr %1, ptr %7, align 8, !tbaa !20
  store i32 %2, ptr %8, align 4, !tbaa !15
  store i32 %3, ptr %9, align 4, !tbaa !22
  store ptr %4, ptr %10, align 8, !tbaa !20
  %11 = load ptr, ptr %6, align 8
  call void @_ZNSt9exceptionC2Ev(ptr noundef nonnull align 8 dereferenceable(8) %11) #3
  store ptr getelementptr inbounds inrange(-16, 24) ({ [5 x ptr] }, ptr @_ZTVN6marisa9ExceptionE, i32 0, i32 0, i32 2), ptr %11, align 8, !tbaa !24
  %12 = getelementptr inbounds nuw %"class.marisa::Exception", ptr %11, i32 0, i32 1
  %13 = load ptr, ptr %7, align 8, !tbaa !20
  store ptr %13, ptr %12, align 8, !tbaa !26
  %14 = getelementptr inbounds nuw %"class.marisa::Exception", ptr %11, i32 0, i32 2
  %15 = load i32, ptr %8, align 4, !tbaa !15
  store i32 %15, ptr %14, align 8, !tbaa !29
  %16 = getelementptr inbounds nuw %"class.marisa::Exception", ptr %11, i32 0, i32 3
  %17 = load i32, ptr %9, align 4, !tbaa !22
  store i32 %17, ptr %16, align 4, !tbaa !30
  %18 = getelementptr inbounds nuw %"class.marisa::Exception", ptr %11, i32 0, i32 4
  %19 = load ptr, ptr %10, align 8, !tbaa !20
  store ptr %19, ptr %18, align 8, !tbaa !31
  ret void
}

; Function Attrs: mustprogress nounwind uwtable
define linkonce_odr noundef ptr @_ZNK6marisa10scoped_ptrINS_8grimoire4trie9LoudsTrieEE3getEv(ptr noundef nonnull align 8 dereferenceable(8) %0) #5 comdat align 2 {
  %2 = alloca ptr, align 8
  store ptr %0, ptr %2, align 8, !tbaa !8
  %3 = load ptr, ptr %2, align 8
  %4 = getelementptr inbounds nuw %"class.marisa::scoped_ptr", ptr %3, i32 0, i32 0
  %5 = load ptr, ptr %4, align 8, !tbaa !10
  ret ptr %5
}

; Function Attrs: mustprogress uwtable
define noundef zeroext i1 @_ZNK6marisa4Trie17predictive_searchERNS_5AgentE(ptr noundef nonnull align 8 dereferenceable(8) %0, ptr noundef nonnull align 8 dereferenceable(48) %1) #4 align 2 personality ptr @__gxx_personality_v0 {
  %3 = alloca ptr, align 8
  %4 = alloca ptr, align 8
  %5 = alloca ptr, align 8
  %6 = alloca i1, align 1
  %7 = alloca ptr, align 8
  %8 = alloca i32, align 4
  store ptr %0, ptr %3, align 8, !tbaa !3
  store ptr %1, ptr %4, align 8, !tbaa !35
  %9 = load ptr, ptr %3, align 8
  %10 = getelementptr inbounds nuw %"class.marisa::Trie", ptr %9, i32 0, i32 0
  %11 = call noundef ptr @_ZNK6marisa10scoped_ptrINS_8grimoire4trie9LoudsTrieEE3getEv(ptr noundef nonnull align 8 dereferenceable(8) %10)
  %12 = icmp eq ptr %11, null
  store i1 false, ptr %6, align 1
  br i1 %12, label %13, label %17

13:                                               ; preds = %2
  %14 = call ptr @__cxa_allocate_exception(i64 32) #3
  store ptr %14, ptr %5, align 8
  store i1 true, ptr %6, align 1
  invoke void @_ZN6marisa9ExceptionC2EPKci18marisa_error_code_S2_(ptr noundef nonnull align 8 dereferenceable(32) %14, ptr noundef @.str, i32 noundef 111, i32 noundef 1, ptr noundef @.str.17)
          to label %15 unwind label %22

15:                                               ; preds = %13
  call void @__cxa_throw(ptr %14, ptr @_ZTIN6marisa9ExceptionE, ptr @_ZNSt9exceptionD2Ev) #12
  unreachable

16:                                               ; No predecessors!
  br label %17

17:                                               ; preds = %16, %2
  %18 = load ptr, ptr %4, align 8, !tbaa !35
  %19 = call noundef zeroext i1 @_ZNK6marisa5Agent9has_stateEv(ptr noundef nonnull align 8 dereferenceable(48) %18)
  br i1 %19, label %30, label %20

20:                                               ; preds = %17
  %21 = load ptr, ptr %4, align 8, !tbaa !35
  call void @_ZN6marisa5Agent10init_stateEv(ptr noundef nonnull align 8 dereferenceable(48) %21)
  br label %30

22:                                               ; preds = %13
  %23 = landingpad { ptr, i32 }
          cleanup
  %24 = extractvalue { ptr, i32 } %23, 0
  store ptr %24, ptr %7, align 8
  %25 = extractvalue { ptr, i32 } %23, 1
  store i32 %25, ptr %8, align 4
  %26 = load i1, ptr %6, align 1
  br i1 %26, label %27, label %29

27:                                               ; preds = %22
  %28 = load ptr, ptr %5, align 8
  call void @__cxa_free_exception(ptr %28) #3
  br label %29

29:                                               ; preds = %27, %22
  br label %35

30:                                               ; preds = %20, %17
  %31 = getelementptr inbounds nuw %"class.marisa::Trie", ptr %9, i32 0, i32 0
  %32 = call noundef ptr @_ZNK6marisa10scoped_ptrINS_8grimoire4trie9LoudsTrieEEptEv(ptr noundef nonnull align 8 dereferenceable(8) %31)
  %33 = load ptr, ptr %4, align 8, !tbaa !35
  %34 = call noundef zeroext i1 @_ZNK6marisa8grimoire4trie9LoudsTrie17predictive_searchERNS_5AgentE(ptr noundef nonnull align 8 dereferenceable(1136) %32, ptr noundef nonnull align 8 dereferenceable(48) %33)
  ret i1 %34

35:                                               ; preds = %29
  %36 = load ptr, ptr %7, align 8
  %37 = load i32, ptr %8, align 4
  %38 = insertvalue { ptr, i32 } poison, ptr %36, 0
  %39 = insertvalue { ptr, i32 } %38, i32 %37, 1
  resume { ptr, i32 } %39
}